Certificate:
    Data:
        Version: 3 (0x2)
        Serial Number: 4097 (0x1001)
    Signature Algorithm: sha256WithRSAEncryption
        Issuer: O=Nokia, CN=CLS Server CA
        Validity
            Not Before: Oct 15 13:36:03 2015 GMT
            Not After : Apr 27 13:36:03 2036 GMT
        Subject: O=Nokia, CN=CLS Client
        Subject Public Key Info:
            Public Key Algorithm: rsaEncryption
                Public-Key: (4096 bit)
                Modulus:
                    00:9a:74:2f:a5:2b:c6:ba:8c:a4:26:19:6b:e0:f3:
                    93:69:bd:83:7c:da:3e:8d:09:fe:45:93:36:44:d9:
                    af:6a:aa:54:47:ea:dd:c6:de:ee:be:ba:19:c5:b6:
                    21:27:d4:fa:47:27:61:d1:5d:c2:f0:5b:d2:4c:ac:
                    6b:f3:d5:09:9a:4c:f9:29:7e:f0:2e:38:ca:19:1f:
                    7c:72:84:f0:61:80:7c:06:f2:1b:a8:59:d9:27:2f:
                    f8:4a:19:59:99:3a:e9:34:23:9a:8e:1c:ad:31:fe:
                    53:fc:31:ff:ee:3e:a5:f0:2c:83:7a:b5:38:e3:74:
                    9f:e1:3d:d4:41:ca:f0:f3:6e:dc:0e:57:6a:62:4b:
                    56:40:aa:53:82:20:08:91:8c:13:71:b3:40:4f:62:
                    b8:56:ad:8d:63:64:00:1b:d4:b6:37:69:9c:48:9c:
                    34:08:6f:3a:fe:fb:32:6f:28:ac:68:8e:9a:06:63:
                    39:8b:bb:ff:8f:70:f0:cb:14:ce:15:62:45:82:fb:
                    f7:d4:a0:11:02:61:02:40:45:fe:f2:4a:f7:8a:1b:
                    b0:72:31:97:d9:82:63:78:a6:08:01:dd:a7:dc:31:
                    b9:4a:8d:cb:1f:81:43:e2:eb:d5:86:9d:1d:7b:06:
                    06:10:a2:69:66:c2:40:32:b1:e0:d6:2e:6d:59:43:
                    18:7f:1d:da:39:94:87:fd:52:ad:4a:71:6b:a5:97:
                    07:00:78:fc:ce:3d:14:8f:07:f0:f2:e3:7f:fd:4e:
                    13:ac:c5:38:33:6f:59:bf:f2:bd:d3:d4:40:3e:45:
                    9e:31:77:e9:d6:6b:a6:10:d4:12:3a:d5:7a:de:de:
                    1e:e5:88:49:13:6e:83:f2:7e:43:5a:54:3f:e2:be:
                    6c:d0:a9:cf:3a:49:78:00:f8:88:b3:fa:58:64:a8:
                    c3:d5:bd:5d:b1:16:c8:5d:bf:f3:79:87:f0:9c:f0:
                    67:f8:13:bc:99:6e:e7:c0:20:a6:e4:cd:f2:25:c5:
                    87:4e:d2:19:87:39:0e:ea:13:74:7b:30:06:41:cf:
                    ac:81:cb:6d:ff:af:b5:14:93:c7:2f:18:27:46:52:
                    a9:c1:34:f0:33:4d:a9:eb:71:f3:e7:61:c4:7a:e6:
                    7f:41:be:cc:27:c1:5a:53:67:c6:78:32:8f:e1:21:
                    36:60:a1:ca:ba:eb:a4:3a:eb:c0:52:ef:41:9e:7c:
                    fa:85:b5:9b:0b:62:03:ea:b2:30:27:89:d4:2e:89:
                    0c:33:84:40:0f:2d:1f:59:99:7c:94:6a:da:10:c2:
                    ee:5b:ea:9a:7c:bb:7d:bf:19:81:08:94:65:9a:7d:
                    0a:9a:4f:6c:04:d1:e0:a1:95:f2:16:2b:22:82:16:
                    d0:09:77
                Exponent: 65537 (0x10001)
        X509v3 extensions:
            X509v3 Basic Constraints: 
                CA:FALSE
            Netscape Cert Type: 
                SSL Client, S/MIME
            Netscape Comment: 
                OpenSSL Generated Client Certificate
            X509v3 Subject Key Identifier: 
                B2:7F:51:A2:6F:EF:E3:96:85:85:4B:2B:7B:19:17:21:BB:B0:39:73
            X509v3 Authority Key Identifier: 
                keyid:8B:46:A0:21:C1:9B:B2:E8:06:BF:D7:C5:75:1E:34:F8:7D:4B:1D:1B

            X509v3 Key Usage: critical
                Digital Signature, Non Repudiation, Key Encipherment
            X509v3 Extended Key Usage: 
                TLS Web Client Authentication, E-mail Protection
    Signature Algorithm: sha256WithRSAEncryption
         61:b2:a9:f2:3a:d1:ca:8e:41:b0:41:bb:9c:aa:f6:15:b2:74:
         0a:be:02:6a:f9:63:74:e1:ac:52:b7:ae:7c:8b:39:4a:c3:ca:
         9d:62:b6:bd:16:06:fc:cb:57:a9:ee:fd:8f:24:ce:00:06:7d:
         28:ed:50:49:a9:3a:5d:4e:3d:23:b1:eb:61:14:70:8c:96:e1:
         b2:da:e1:71:7a:b9:b8:26:ff:51:1b:f7:2f:3a:89:88:10:ee:
         22:40:f1:15:2e:49:03:17:db:b0:ea:75:2b:12:c6:73:83:8b:
         62:07:43:cb:0a:01:a9:63:70:5f:ea:14:c9:85:53:94:d8:87:
         d2:40:69:32:5d:5a:d5:6a:69:9a:6c:c1:8e:33:79:5e:d7:9e:
         13:6b:ba:91:22:1b:04:eb:66:e4:19:5c:20:10:b7:af:2d:2a:
         7e:53:e3:00:cc:18:de:7e:54:bb:ba:a7:a1:46:be:a3:05:5c:
         5f:10:a8:95:66:7d:7d:eb:f3:49:98:2b:8d:ea:ec:65:90:42:
         e6:d4:61:bf:af:db:3b:5e:e4:10:64:e8:cb:09:f2:81:46:3b:
         65:63:ac:74:9c:fc:4d:30:e3:65:6e:17:57:25:e8:ab:8a:5d:
         5a:15:1d:6e:ac:5d:ff:0d:f2:75:c3:99:7d:66:64:b3:53:9d:
         37:ed:d5:97:5a:18:ba:a4:94:7c:86:74:79:69:be:c6:d9:39:
         67:cd:ff:e5:e3:4b:f5:56:ea:5c:b4:59:c6:a9:9f:2c:18:a8:
         02:e2:b7:ff:fc:fb:a9:de:61:ff:b6:3b:fc:7b:75:8f:a0:2f:
         19:37:38:80:96:7d:26:a9:de:4b:13:ad:71:7e:5c:af:a3:8c:
         25:e8:df:02:77:db:e9:77:e3:d8:55:a9:6b:e4:08:d0:ca:54:
         9d:67:12:d1:78:db:35:66:d7:6f:42:45:da:1f:d8:f7:31:82:
         24:47:c3:b8:0f:59:92:73:ef:2d:fb:6d:0f:2d:4a:1b:c0:fc:
         c2:6e:3b:87:79:9a:48:ae:29:0f:27:cc:ba:5c:f7:13:37:4e:
         f7:98:8b:b5:19:0a:82:b9:5e:9f:7f:7a:7e:ca:5a:a0:91:6b:
         ea:27:71:f7:eb:cb:3f:d6:aa:a1:1b:e5:ab:04:ab:c6:c2:54:
         20:94:0a:64:64:65:24:2e:f2:7f:dd:7e:a7:c9:7c:32:d4:53:
         f6:c1:79:73:cd:3d:fa:b9:7c:62:b1:97:dc:7b:f9:f3:a6:1f:
         c1:ee:33:34:92:d6:18:cb:5d:d6:2a:99:f9:f6:d9:9c:d0:3e:
         8c:14:61:bc:3f:99:a6:38:25:7d:a4:4f:4e:d0:17:88:dd:00:
         b5:62:49:d0:71:0c:b0:ad
-----BEGIN CERTIFICATE-----
MIIFjzCCA3egAwIBAgICEAEwDQYJKoZIhvcNAQELBQAwKDEOMAwGA1UECgwFTm9r
aWExFjAUBgNVBAMMDUNMUyBTZXJ2ZXIgQ0EwHhcNMTUxMDE1MTMzNjAzWhcNMzYw
NDI3MTMzNjAzWjAlMQ4wDAYDVQQKDAVOb2tpYTETMBEGA1UEAwwKQ0xTIENsaWVu
dDCCAiIwDQYJKoZIhvcNAQEBBQADggIPADCCAgoCggIBAJp0L6UrxrqMpCYZa+Dz
k2m9g3zaPo0J/kWTNkTZr2qqVEfq3cbe7r66GcW2ISfU+kcnYdFdwvBb0kysa/PV
CZpM+Sl+8C44yhkffHKE8GGAfAbyG6hZ2Scv+EoZWZk66TQjmo4crTH+U/wx/+4+
pfAsg3q1OON0n+E91EHK8PNu3A5XamJLVkCqU4IgCJGME3GzQE9iuFatjWNkABvU
tjdpnEicNAhvOv77Mm8orGiOmgZjOYu7/49w8MsUzhViRYL799SgEQJhAkBF/vJK
94obsHIxl9mCY3imCAHdp9wxuUqNyx+BQ+Lr1YadHXsGBhCiaWbCQDKx4NYubVlD
GH8d2jmUh/1SrUpxa6WXBwB4/M49FI8H8PLjf/1OE6zFODNvWb/yvdPUQD5FnjF3
6dZrphDUEjrVet7eHuWISRNug/J+Q1pUP+K+bNCpzzpJeAD4iLP6WGSow9W9XbEW
yF2/83mH8JzwZ/gTvJlu58AgpuTN8iXFh07SGYc5DuoTdHswBkHPrIHLbf+vtRST
xy8YJ0ZSqcE08DNNqetx8+dhxHrmf0G+zCfBWlNnxngyj+EhNmChyrrrpDrrwFLv
QZ58+oW1mwtiA+qyMCeJ1C6JDDOEQA8tH1mZfJRq2hDC7lvqmny7fb8ZgQiUZZp9
CppPbATR4KGV8hYrIoIW0Al3AgMBAAGjgcUwgcIwCQYDVR0TBAIwADARBglghkgB
hvhCAQEEBAMCBaAwMwYJYIZIAYb4QgENBCYWJE9wZW5TU0wgR2VuZXJhdGVkIENs
aWVudCBDZXJ0aWZpY2F0ZTAdBgNVHQ4EFgQUsn9Rom/v45aFhUsrexkXIbuwOXMw
HwYDVR0jBBgwFoAUi0agIcGbsugGv9fFdR40+H1LHRswDgYDVR0PAQH/BAQDAgXg
MB0GA1UdJQQWMBQGCCsGAQUFBwMCBggrBgEFBQcDBDANBgkqhkiG9w0BAQsFAAOC
AgEAYbKp8jrRyo5BsEG7nKr2FbJ0Cr4CavljdOGsUreufIs5SsPKnWK2vRYG/MtX
qe79jyTOAAZ9KO1QSak6XU49I7HrYRRwjJbhstrhcXq5uCb/URv3LzqJiBDuIkDx
FS5JAxfbsOp1KxLGc4OLYgdDywoBqWNwX+oUyYVTlNiH0kBpMl1a1WppmmzBjjN5
XteeE2u6kSIbBOtm5BlcIBC3ry0qflPjAMwY3n5Uu7qnoUa+owVcXxColWZ9fevz
SZgrjersZZBC5tRhv6/bO17kEGToywnygUY7ZWOsdJz8TTDjZW4XVyXoq4pdWhUd
bqxd/w3ydcOZfWZks1OdN+3Vl1oYuqSUfIZ0eWm+xtk5Z83/5eNL9VbqXLRZxqmf
LBioAuK3//z7qd5h/7Y7/Ht1j6AvGTc4gJZ9JqneSxOtcX5cr6OMJejfAnfb6Xfj
2FWpa+QI0MpUnWcS0XjbNWbXb0JF2h/Y9zGCJEfDuA9ZknPvLfttDy1KG8D8wm47
h3maSK4pDyfMulz3EzdO95iLtRkKgrlen396fspaoJFr6idx9+vLP9aqoRvlqwSr
xsJUIJQKZGRlJC7yf91+p8l8MtRT9sF5c809+rl8YrGX3Hv586Yfwe4zNJLWGMtd
1iqZ+fbZnNA+jBRhvD+ZpjglfaRPTtAXiN0AtWJJ0HEMsK0=
-----END CERTIFICATE-----
