Certificate:
    Data:
        Version: 3 (0x2)
        Serial Number: 4097 (0x1001)
        Signature Algorithm: sha256WithRSAEncryption
        Issuer: O=Nokia, CN=CLS Server CA
        Validity
            Not Before: Oct 14 07:57:02 2015 GMT
            Not After : Apr 26 07:57:02 2036 GMT
        Subject: O=Nokia, CN=CLS Client
        Subject Public Key Info:
            Public Key Algorithm: rsaEncryption
                Public-Key: (4096 bit)
                Modulus:
                    00:b5:0e:d2:76:0f:78:f5:d8:9b:a0:a5:dd:fd:aa:
                    b8:9e:a8:52:7d:51:22:96:aa:e5:12:61:32:2f:54:
                    ef:09:e3:8f:e6:a2:35:1a:db:75:e4:4a:e0:e7:66:
                    22:6f:98:d3:84:17:68:ec:59:71:dc:85:2a:5b:e3:
                    b4:aa:ab:7d:c3:8d:56:7d:4f:b5:e6:ba:38:3a:09:
                    cf:ae:aa:51:c2:c4:e9:d3:53:6a:52:ed:15:73:90:
                    d9:cc:eb:65:59:3b:6b:49:b1:45:84:bf:54:0c:f3:
                    80:28:1c:f5:63:e2:8d:b8:30:0e:16:07:d5:3c:6e:
                    df:9c:78:d7:11:94:d1:a6:57:30:d9:86:95:3a:c3:
                    1a:dc:f4:75:4b:b7:2f:b1:c4:cd:ce:27:6c:0c:da:
                    d7:75:af:ce:e6:c2:81:36:2b:ba:cb:9a:ad:13:b2:
                    f0:ec:3c:f2:56:d0:c6:d2:67:57:7f:a9:f5:1e:de:
                    e8:91:c2:bd:20:49:8b:7f:5b:d1:21:69:63:ef:f1:
                    db:bd:d4:40:1c:d5:1b:79:b6:32:44:bb:88:dd:0e:
                    bc:46:27:ab:b8:32:56:39:52:d2:0c:3c:2a:cc:e1:
                    e6:f2:46:e9:0a:bf:09:04:08:cd:5a:cd:c2:47:a9:
                    7b:f9:7b:fa:53:0f:33:86:1e:75:00:44:0c:e7:d7:
                    63:14:a3:77:5a:c7:c4:85:52:a0:1b:a1:84:65:4c:
                    68:0f:d4:59:4f:04:c3:6a:57:e5:4a:db:d8:20:2b:
                    fd:63:90:11:ff:68:fb:32:f7:bd:8e:0b:19:78:a5:
                    e5:51:2c:4d:2f:8f:09:99:72:7f:d7:23:0c:a3:ef:
                    d3:a2:1a:b9:42:95:ea:d3:9e:99:eb:60:37:75:0b:
                    f3:20:ea:d6:9a:32:e0:d4:b5:cd:72:b7:a1:aa:21:
                    cc:05:8c:4a:70:56:7a:05:ad:b3:78:72:ad:5a:b3:
                    58:31:cf:ea:a0:54:f6:61:e6:ea:59:68:11:87:76:
                    77:d1:5d:69:d8:65:f9:a7:a0:03:61:df:80:b8:59:
                    02:08:07:a9:52:f4:9f:0f:8e:ce:bb:ef:11:62:b3:
                    86:e6:b6:53:3e:cc:83:5f:3b:93:e7:77:db:7c:39:
                    a4:14:f5:99:5b:88:98:55:7b:15:d3:cf:1a:b3:76:
                    41:26:a4:e8:b7:38:41:b3:2c:b1:2f:75:ce:84:52:
                    1b:f6:de:ec:69:23:8f:6c:00:58:ef:d8:ca:72:8f:
                    6b:ee:51:04:25:71:16:14:22:80:91:9b:72:01:0c:
                    dd:7d:15:83:41:49:b3:c3:aa:5c:2b:c2:6e:92:93:
                    1f:30:4b:7e:e8:3c:f0:4f:30:00:fb:a5:64:2c:35:
                    fe:ce:d7
                Exponent: 65537 (0x10001)
        X509v3 extensions:
            X509v3 Basic Constraints: 
                CA:FALSE
            Netscape Cert Type: 
                SSL Client, S/MIME
            Netscape Comment: 
                OpenSSL Generated Client Certificate
            X509v3 Subject Key Identifier: 
                B3:58:7A:38:E2:F1:2A:2A:D8:6E:73:13:1F:7B:99:3A:7A:D9:9E:DE
            X509v3 Authority Key Identifier: 
                keyid:57:76:5A:69:E8:C4:FD:BB:98:B8:7D:30:AC:70:FD:C8:92:21:D6:C7

            X509v3 Key Usage: critical
                Digital Signature, Non Repudiation, Key Encipherment
            X509v3 Extended Key Usage: 
                TLS Web Client Authentication, E-mail Protection
    Signature Algorithm: sha256WithRSAEncryption
        a8:29:14:57:95:d3:67:79:21:67:63:cb:24:34:f5:38:c2:42:
        e0:48:05:11:e0:bd:a5:11:f3:cf:fa:76:66:47:0d:9b:c2:4d:
        bb:37:9a:cb:46:48:e6:7b:5d:97:e0:c8:33:41:da:d5:da:c5:
        a4:27:f4:6e:aa:c2:fb:44:d2:2a:0d:44:9e:ef:f8:a2:75:d5:
        df:81:3e:71:73:b5:ef:15:28:38:d3:80:15:53:8e:07:3a:0d:
        37:38:3a:37:d6:f4:e1:71:92:c6:82:bd:71:97:14:d4:0d:c1:
        98:7a:e7:e3:88:4c:42:9f:83:f1:93:1b:06:7d:bc:1c:56:a0:
        0e:1f:cd:d2:ae:91:74:a2:54:95:c6:6b:60:b5:b0:f8:13:43:
        4f:c9:91:99:67:17:a4:0a:01:67:ff:12:e0:4a:0c:bc:5b:39:
        30:4e:ad:36:df:f1:8c:2a:c6:ec:6f:57:39:a5:9f:a8:c5:00:
        80:24:0c:4e:33:21:fb:0f:17:63:16:3b:00:7e:89:c6:31:f4:
        91:ac:fd:84:60:90:4f:48:9a:e5:30:73:ad:d7:c9:a1:1e:40:
        7d:ac:11:8f:2b:bd:51:73:4c:58:c2:75:34:8c:06:ba:b9:6e:
        aa:17:2a:1d:d8:0e:95:8e:45:29:f4:7a:53:93:dc:1d:ca:cb:
        0f:27:92:d8:29:6c:92:3f:17:14:a8:96:7d:39:3b:ad:b1:b9:
        44:a2:d7:9e:11:7e:ba:20:87:7a:ef:c9:c4:f6:70:0c:b8:e8:
        d7:05:09:ff:58:0c:e9:43:b7:c1:64:ac:cf:c5:13:74:44:fd:
        c5:a2:c1:20:ad:5a:fb:6e:db:73:21:dc:16:29:f7:65:fd:c2:
        8e:83:ca:5b:51:13:df:36:fa:2d:ca:81:ce:4d:42:3c:25:57:
        c1:74:4c:15:1f:9c:5a:e7:9c:13:67:3c:bf:72:c5:b5:f6:c8:
        d9:3c:ef:81:b6:60:1d:01:06:a9:32:e8:96:75:3d:ca:61:4f:
        8e:59:eb:e0:58:7f:8e:0a:aa:79:54:13:67:5d:b1:3b:80:66:
        a2:df:a2:d9:48:3e:32:19:62:ed:3e:41:35:0e:33:1d:e8:d5:
        ad:ab:28:1d:ce:18:ae:88:ff:2c:a2:0a:7c:a6:0a:ce:be:d2:
        f1:bb:c1:f5:ee:a0:81:fa:b2:19:78:26:b9:d4:9b:29:fe:e2:
        02:d6:24:65:4d:b0:66:e1:d8:56:2f:f9:46:8a:65:7f:b9:a2:
        c1:9e:fc:e0:3a:71:cc:45:f9:ed:e1:26:d5:8a:12:fb:47:b3:
        d9:fc:15:8e:8a:0e:7b:f4:a5:e7:d5:54:ce:63:25:98:53:53:
        11:b3:74:2a:c7:05:1d:a1
-----BEGIN CERTIFICATE-----
MIIFjzCCA3egAwIBAgICEAEwDQYJKoZIhvcNAQELBQAwKDEOMAwGA1UECgwFTm9r
aWExFjAUBgNVBAMMDUNMUyBTZXJ2ZXIgQ0EwHhcNMTUxMDE0MDc1NzAyWhcNMzYw
NDI2MDc1NzAyWjAlMQ4wDAYDVQQKDAVOb2tpYTETMBEGA1UEAwwKQ0xTIENsaWVu
dDCCAiIwDQYJKoZIhvcNAQEBBQADggIPADCCAgoCggIBALUO0nYPePXYm6Cl3f2q
uJ6oUn1RIpaq5RJhMi9U7wnjj+aiNRrbdeRK4OdmIm+Y04QXaOxZcdyFKlvjtKqr
fcONVn1Ptea6ODoJz66qUcLE6dNTalLtFXOQ2czrZVk7a0mxRYS/VAzzgCgc9WPi
jbgwDhYH1Txu35x41xGU0aZXMNmGlTrDGtz0dUu3L7HEzc4nbAza13WvzubCgTYr
usuarROy8Ow88lbQxtJnV3+p9R7e6JHCvSBJi39b0SFpY+/x273UQBzVG3m2MkS7
iN0OvEYnq7gyVjlS0gw8Kszh5vJG6Qq/CQQIzVrNwkepe/l7+lMPM4YedQBEDOfX
YxSjd1rHxIVSoBuhhGVMaA/UWU8Ew2pX5Urb2CAr/WOQEf9o+zL3vY4LGXil5VEs
TS+PCZlyf9cjDKPv06IauUKV6tOemetgN3UL8yDq1poy4NS1zXK3oaohzAWMSnBW
egWts3hyrVqzWDHP6qBU9mHm6lloEYd2d9Fdadhl+aegA2HfgLhZAggHqVL0nw+O
zrvvEWKzhua2Uz7Mg187k+d323w5pBT1mVuImFV7FdPPGrN2QSak6Lc4QbMssS91
zoRSG/be7Gkjj2wAWO/YynKPa+5RBCVxFhQigJGbcgEM3X0Vg0FJs8OqXCvCbpKT
HzBLfug88E8wAPulZCw1/s7XAgMBAAGjgcUwgcIwCQYDVR0TBAIwADARBglghkgB
hvhCAQEEBAMCBaAwMwYJYIZIAYb4QgENBCYWJE9wZW5TU0wgR2VuZXJhdGVkIENs
aWVudCBDZXJ0aWZpY2F0ZTAdBgNVHQ4EFgQUs1h6OOLxKirYbnMTH3uZOnrZnt4w
HwYDVR0jBBgwFoAUV3ZaaejE/buYuH0wrHD9yJIh1scwDgYDVR0PAQH/BAQDAgXg
MB0GA1UdJQQWMBQGCCsGAQUFBwMCBggrBgEFBQcDBDANBgkqhkiG9w0BAQsFAAOC
AgEAqCkUV5XTZ3khZ2PLJDT1OMJC4EgFEeC9pRHzz/p2ZkcNm8JNuzeay0ZI5ntd
l+DIM0Ha1drFpCf0bqrC+0TSKg1Enu/4onXV34E+cXO17xUoONOAFVOOBzoNNzg6
N9b04XGSxoK9cZcU1A3BmHrn44hMQp+D8ZMbBn28HFagDh/N0q6RdKJUlcZrYLWw
+BNDT8mRmWcXpAoBZ/8S4EoMvFs5ME6tNt/xjCrG7G9XOaWfqMUAgCQMTjMh+w8X
YxY7AH6JxjH0kaz9hGCQT0ia5TBzrdfJoR5AfawRjyu9UXNMWMJ1NIwGurluqhcq
HdgOlY5FKfR6U5PcHcrLDyeS2Clskj8XFKiWfTk7rbG5RKLXnhF+uiCHeu/JxPZw
DLjo1wUJ/1gM6UO3wWSsz8UTdET9xaLBIK1a+27bcyHcFin3Zf3CjoPKW1ET3zb6
LcqBzk1CPCVXwXRMFR+cWuecE2c8v3LFtfbI2TzvgbZgHQEGqTLolnU9ymFPjlnr
4Fh/jgqqeVQTZ12xO4Bmot+i2Ug+Mhli7T5BNQ4zHejVrasoHc4Yroj/LKIKfKYK
zr7S8bvB9e6ggfqyGXgmudSbKf7iAtYkZU2wZuHYVi/5Roplf7miwZ784DpxzEX5
7eEm1YoS+0ez2fwVjooOe/Sl59VUzmMlmFNTEbN0KscFHaE=
-----END CERTIFICATE-----
