Certificate:
    Data:
        Version: 3 (0x2)
        Serial Number: 4096 (0x1000)
        Signature Algorithm: sha256WithRSAEncryption
        Issuer: O=Nokia, CN=CLS Server CA
        Validity
            Not Before: Oct 14 07:57:02 2015 GMT
            Not After : Apr 26 07:57:02 2036 GMT
        Subject: O=Nokia, CN=localhost
        Subject Public Key Info:
            Public Key Algorithm: rsaEncryption
                Public-Key: (4096 bit)
                Modulus:
                    00:a0:46:30:a5:10:d5:75:e3:4a:a1:96:be:cd:1d:
                    64:24:dc:11:70:d2:9c:b1:b7:dd:b8:23:20:ad:58:
                    fc:0d:b4:63:79:b3:4c:4d:bb:9c:1d:35:98:46:b0:
                    ad:a8:f4:87:89:35:19:6e:71:bd:98:6c:83:50:68:
                    60:fd:0e:7b:13:29:4b:51:ba:78:ea:6d:21:09:06:
                    7e:bd:dc:19:e3:f9:01:1d:ea:a4:82:76:84:90:5d:
                    a4:eb:9e:30:81:92:01:c0:b8:11:3d:86:c3:c6:3d:
                    de:35:2e:d3:ac:6f:4b:3e:a4:e2:9b:f1:b0:88:c5:
                    d6:47:3f:8b:fb:6b:42:85:46:4f:d9:46:24:9c:ee:
                    5f:d5:6b:89:57:1d:cd:0a:3d:47:76:f0:bb:9c:0d:
                    95:bb:05:a2:76:55:84:1a:93:5f:14:ff:d4:63:91:
                    4c:0f:a3:83:97:4f:ee:2f:33:84:38:f0:6c:58:30:
                    5a:0b:60:62:0e:57:d7:86:d7:00:3b:4f:ef:0e:63:
                    60:bc:df:5a:16:83:b3:2b:1a:2c:02:3c:3e:27:41:
                    88:45:5f:4d:45:80:52:9f:8c:03:4a:8e:59:e2:70:
                    7d:3b:bc:17:b7:f3:63:0b:2c:4f:b1:c2:cc:68:5c:
                    f1:89:e2:b0:f7:0b:5e:ef:1e:5a:d5:1b:80:ee:1d:
                    92:bd:77:c7:69:fa:de:71:20:b5:54:a5:49:5f:74:
                    02:de:93:67:a4:d9:79:a2:1e:41:f6:95:e9:62:24:
                    f4:c2:ad:39:22:38:2b:7e:3c:ff:60:b1:8e:77:59:
                    9f:d6:95:dc:e1:ae:be:e8:f7:12:b6:19:31:b8:08:
                    a5:8a:cc:ed:c7:73:60:ef:56:2a:82:9b:b3:25:10:
                    03:c9:8e:d9:a7:75:6c:08:8b:0d:95:07:72:bf:8a:
                    03:e9:d6:24:48:31:04:b7:70:d8:3b:71:c5:1f:7e:
                    0c:95:79:41:f6:69:d1:ab:23:32:03:c2:d5:de:b5:
                    7d:03:8a:58:fe:9c:55:0e:e8:b5:d0:ad:d5:9d:ab:
                    30:a3:f8:20:5b:19:1f:9f:af:1f:30:51:e8:e6:03:
                    fd:06:1b:78:8e:f4:53:14:00:c9:96:56:9f:fa:78:
                    12:d3:91:45:ab:da:96:ca:8d:61:58:96:69:9a:05:
                    92:4f:28:28:15:dc:ba:df:30:63:54:8c:4e:a8:83:
                    7f:58:b4:12:ef:85:0a:95:f3:4f:cd:6d:1f:02:68:
                    f6:0b:73:6f:65:f9:2c:5c:a9:32:d5:f8:18:08:af:
                    c9:8e:f8:18:32:0d:cb:99:fd:2f:9a:5f:8c:03:f1:
                    2d:cd:06:d0:55:a2:f8:f8:6c:a6:88:01:97:5e:a3:
                    a2:0a:f3
                Exponent: 65537 (0x10001)
        X509v3 extensions:
            X509v3 Basic Constraints: 
                CA:FALSE
            Netscape Cert Type: 
                SSL Server
            Netscape Comment: 
                OpenSSL Generated Server Certificate
            X509v3 Subject Key Identifier: 
                75:8D:63:C5:DC:68:94:F5:F1:19:1B:42:3B:C1:7F:F7:64:4B:49:1C
            X509v3 Authority Key Identifier: 
                keyid:57:76:5A:69:E8:C4:FD:BB:98:B8:7D:30:AC:70:FD:C8:92:21:D6:C7
                DirName:/O=Nokia/CN=CLS Installation CA
                serial:10:00

            X509v3 Key Usage: critical
                Digital Signature, Key Encipherment
            X509v3 Extended Key Usage: 
                TLS Web Server Authentication
            X509v3 Subject Alternative Name: 
                DNS:clab1405node02.netact.nsn-rdnet.net, DNS:clab1405node02.netact.nsn-rdnet.net, IP Address:10.91.105.33
    Signature Algorithm: sha256WithRSAEncryption
        94:3f:a5:25:d6:c5:d9:76:94:c6:31:89:61:7a:21:d7:8a:1c:
        9c:6d:64:d5:6b:e1:62:ae:a5:9d:41:ef:1c:0f:83:aa:27:9f:
        8e:2b:20:e8:61:1e:e2:07:42:b5:da:51:e0:c6:d7:27:c7:ee:
        32:a1:6f:ca:95:5b:da:a2:46:ff:84:07:1e:24:73:9c:63:1b:
        ac:08:04:83:a5:94:f7:57:ed:ca:fd:00:65:0c:00:46:27:1f:
        71:16:23:46:1f:d2:9f:20:29:06:a7:93:64:fb:26:a7:88:aa:
        9f:08:f4:14:65:3f:11:4d:60:25:ed:a0:45:f6:68:d3:43:9a:
        39:31:30:f0:4e:1b:46:7b:bb:81:af:0c:e2:e4:79:1f:69:ac:
        73:6b:ca:54:12:d9:c0:1d:a3:25:a1:1a:54:a2:19:b8:03:75:
        67:06:f2:ca:90:1e:db:55:69:e6:d0:f6:37:fc:bd:aa:f7:99:
        91:14:e1:ff:b0:d1:34:ca:dc:c5:f8:d9:c3:9e:5c:f1:ba:5b:
        6e:73:60:36:b7:41:92:f1:2b:09:1f:45:11:19:a0:49:c5:06:
        43:a3:92:8c:f4:da:c7:7f:b3:70:a2:1d:8b:91:d4:4f:83:ee:
        0b:a4:3d:43:91:56:a4:ff:41:d3:86:bf:cd:74:9a:40:e0:e4:
        b1:d8:66:58:cc:82:7f:ea:54:da:1d:42:ae:81:35:80:14:bc:
        43:7d:72:71:46:30:49:94:94:74:ea:5f:7e:46:8a:5f:5d:f1:
        ab:dd:c5:3e:2f:5d:6d:b0:ed:82:bd:8d:d4:9d:36:82:b7:ac:
        db:22:ce:dc:5a:5f:b2:bd:9b:bb:b5:03:25:83:32:78:19:95:
        61:f1:63:ef:c2:10:db:de:be:2b:08:d8:3a:23:b4:4e:04:0e:
        0e:f7:a6:5a:e2:e3:56:ad:bb:d1:6b:12:c0:06:ec:08:67:6a:
        36:c0:99:76:98:d0:e8:8e:e4:7f:fe:92:90:f3:0e:f5:f9:8f:
        15:c2:0d:1e:0c:6f:09:c7:9b:c8:c8:05:7d:42:09:16:96:b2:
        ff:77:ca:0a:90:8a:14:71:ad:a0:f8:30:72:e7:3c:a7:2a:be:
        1f:01:51:52:90:7d:d9:5b:73:81:17:49:75:8d:a8:6f:0e:49:
        a6:7a:c8:54:ce:50:df:a4:98:bd:36:f3:b1:13:a6:6d:58:c7:
        fb:fc:a1:fa:50:6b:d9:34:57:b3:1c:2c:04:35:9b:6d:83:4b:
        63:04:33:ab:9c:a1:dd:7f:fd:dc:b5:c4:52:ed:a2:e6:54:88:
        cc:fc:bb:4e:4b:a2:a9:1a:9d:bd:d2:ab:ab:31:5a:30:3c:13:
        dd:ca:84:d0:7c:a9:4f:cc
-----BEGIN CERTIFICATE-----
MIIGGTCCBAGgAwIBAgICEAAwDQYJKoZIhvcNAQELBQAwKDEOMAwGA1UECgwFTm9r
aWExFjAUBgNVBAMMDUNMUyBTZXJ2ZXIgQ0EwHhcNMTUxMDE0MDc1NzAyWhcNMzYw
NDI2MDc1NzAyWjAkMQ4wDAYDVQQKDAVOb2tpYTESMBAGA1UEAwwJbG9jYWxob3N0
MIICIjANBgkqhkiG9w0BAQEFAAOCAg8AMIICCgKCAgEAoEYwpRDVdeNKoZa+zR1k
JNwRcNKcsbfduCMgrVj8DbRjebNMTbucHTWYRrCtqPSHiTUZbnG9mGyDUGhg/Q57
EylLUbp46m0hCQZ+vdwZ4/kBHeqkgnaEkF2k654wgZIBwLgRPYbDxj3eNS7TrG9L
PqTim/GwiMXWRz+L+2tChUZP2UYknO5f1WuJVx3NCj1HdvC7nA2VuwWidlWEGpNf
FP/UY5FMD6ODl0/uLzOEOPBsWDBaC2BiDlfXhtcAO0/vDmNgvN9aFoOzKxosAjw+
J0GIRV9NRYBSn4wDSo5Z4nB9O7wXt/NjCyxPscLMaFzxieKw9wte7x5a1RuA7h2S
vXfHafrecSC1VKVJX3QC3pNnpNl5oh5B9pXpYiT0wq05Ijgrfjz/YLGOd1mf1pXc
4a6+6PcSthkxuAilisztx3Ng71YqgpuzJRADyY7Zp3VsCIsNlQdyv4oD6dYkSDEE
t3DYO3HFH34MlXlB9mnRqyMyA8LV3rV9A4pY/pxVDui10K3Vnaswo/ggWxkfn68f
MFHo5gP9Bht4jvRTFADJllaf+ngS05FFq9qWyo1hWJZpmgWSTygoFdy63zBjVIxO
qIN/WLQS74UKlfNPzW0fAmj2C3NvZfksXKky1fgYCK/JjvgYMg3Lmf0vml+MA/Et
zQbQVaL4+GymiAGXXqOiCvMCAwEAAaOCAU8wggFLMAkGA1UdEwQCMAAwEQYJYIZI
AYb4QgEBBAQDAgZAMDMGCWCGSAGG+EIBDQQmFiRPcGVuU1NMIEdlbmVyYXRlZCBT
ZXJ2ZXIgQ2VydGlmaWNhdGUwHQYDVR0OBBYEFHWNY8XcaJT18RkbQjvBf/dkS0kc
MFcGA1UdIwRQME6AFFd2WmnoxP27mLh9MKxw/ciSIdbHoTKkMDAuMQ4wDAYDVQQK
EwVOb2tpYTEcMBoGA1UEAxMTQ0xTIEluc3RhbGxhdGlvbiBDQYICEAAwDgYDVR0P
AQH/BAQDAgWgMBMGA1UdJQQMMAoGCCsGAQUFBwMBMFkGA1UdEQRSMFCCI2NsYWIx
NDA1bm9kZTAyLm5ldGFjdC5uc24tcmRuZXQubmV0giNjbGFiMTQwNW5vZGUwMi5u
ZXRhY3QubnNuLXJkbmV0Lm5ldIcECltpITANBgkqhkiG9w0BAQsFAAOCAgEAlD+l
JdbF2XaUxjGJYXoh14ocnG1k1WvhYq6lnUHvHA+Dqiefjisg6GEe4gdCtdpR4MbX
J8fuMqFvypVb2qJG/4QHHiRznGMbrAgEg6WU91ftyv0AZQwARicfcRYjRh/SnyAp
BqeTZPsmp4iqnwj0FGU/EU1gJe2gRfZo00OaOTEw8E4bRnu7ga8M4uR5H2msc2vK
VBLZwB2jJaEaVKIZuAN1ZwbyypAe21Vp5tD2N/y9qveZkRTh/7DRNMrcxfjZw55c
8bpbbnNgNrdBkvErCR9FERmgScUGQ6OSjPTax3+zcKIdi5HUT4PuC6Q9Q5FWpP9B
04a/zXSaQODksdhmWMyCf+pU2h1CroE1gBS8Q31ycUYwSZSUdOpffkaKX13xq93F
Pi9dbbDtgr2N1J02gres2yLO3Fpfsr2bu7UDJYMyeBmVYfFj78IQ296+KwjYOiO0
TgQODvemWuLjVq270WsSwAbsCGdqNsCZdpjQ6I7kf/6SkPMO9fmPFcINHgxvCceb
yMgFfUIJFpay/3fKCpCKFHGtoPgwcuc8pyq+HwFRUpB92VtzgRdJdY2obw5JpnrI
VM5Q36SYvTbzsROmbVjH+/yh+lBr2TRXsxwsBDWbbYNLYwQzq5yh3X/93LXEUu2i
5lSIzPy7TkuiqRqdvdKrqzFaMDwT3cqE0HypT8w=
-----END CERTIFICATE-----
